; Function Attrs: mustprogress nounwind uwtable
define internal fastcc void @"_ZSt21__inplace_stable_sortIN9__gnu_cxx17__normal_iteratorIPN3ue212_GLOBAL__N_113ReachSubgraphESt6vectorIS4_SaIS4_EEEENS0_5__ops15_Iter_comp_iterIZNS2_14analyseRepeatsERNS2_8NGHolderEPKNS2_13ReportManagerERKSt3mapIjjSt4lessIjESaISt4pairIKjjEEERKSH_IjS6_IS6_INS2_9CharReachESaISR_EESaIST_EESJ_SaISK_ISL_SV_EEEPS6_INS2_17BoundedRepeatDataESaIS11_EEbbRKNS2_4GreyEPbE3$_1EEEvT_S1B_T0_"(ptr %0, ptr %1) unnamed_addr #4 {
  %3 = ptrtoint ptr %1 to i64
  %4 = ptrtoint ptr %0 to i64
  %5 = sub i64 %3, %4
  %6 = icmp slt i64 %5, 720
  br i1 %6, label %common.ret, label %7

common.ret:                                       ; preds = %2
  tail call fastcc void @"_ZSt16__insertion_sortIN9__gnu_cxx17__normal_iteratorIPN3ue212_GLOBAL__N_113ReachSubgraphESt6vectorIS4_SaIS4_EEEENS0_5__ops15_Iter_comp_iterIZNS2_14analyseRepeatsERNS2_8NGHolderEPKNS2_13ReportManagerERKSt3mapIjjSt4lessIjESaISt4pairIKjjEEERKSH_IjS6_IS6_INS2_9CharReachESaISR_EESaIST_EESJ_SaISK_ISL_SV_EEEPS6_INS2_17BoundedRepeatDataESaIS11_EEbbRKNS2_4GreyEPbE3$_1EEEvT_S1B_T0_"(ptr %0, ptr %1)
  br label %common.ret27

common.ret27:                                     ; preds = %7, %common.ret
  ret void

7:                                                ; preds = %2
  %8 = udiv exact i64 %5, 48
  %9 = lshr i64 %8, 1
  %10 = getelementptr inbounds nuw %"struct.ue2::(anonymous namespace)::ReachSubgraph", ptr %0, i64 %9
  tail call fastcc void @"_ZSt21__inplace_stable_sortIN9__gnu_cxx17__normal_iteratorIPN3ue212_GLOBAL__N_113ReachSubgraphESt6vectorIS4_SaIS4_EEEENS0_5__ops15_Iter_comp_iterIZNS2_14analyseRepeatsERNS2_8NGHolderEPKNS2_13ReportManagerERKSt3mapIjjSt4lessIjESaISt4pairIKjjEEERKSH_IjS6_IS6_INS2_9CharReachESaISR_EESaIST_EESJ_SaISK_ISL_SV_EEEPS6_INS2_17BoundedRepeatDataESaIS11_EEbbRKNS2_4GreyEPbE3$_1EEEvT_S1B_T0_"(ptr %0, ptr %10)
  tail call fastcc void @"_ZSt21__inplace_stable_sortIN9__gnu_cxx17__normal_iteratorIPN3ue212_GLOBAL__N_113ReachSubgraphESt6vectorIS4_SaIS4_EEEENS0_5__ops15_Iter_comp_iterIZNS2_14analyseRepeatsERNS2_8NGHolderEPKNS2_13ReportManagerERKSt3mapIjjSt4lessIjESaISt4pairIKjjEEERKSH_IjS6_IS6_INS2_9CharReachESaISR_EESaIST_EESJ_SaISK_ISL_SV_EEEPS6_INS2_17BoundedRepeatDataESaIS11_EEbbRKNS2_4GreyEPbE3$_1EEEvT_S1B_T0_"(ptr %10, ptr %1)
  %11 = ptrtoint ptr %10 to i64
  %12 = sub i64 %3, %11
  %13 = sdiv exact i64 %12, 48
  tail call fastcc void @"_ZSt22__merge_without_bufferIN9__gnu_cxx17__normal_iteratorIPN3ue212_GLOBAL__N_113ReachSubgraphESt6vectorIS4_SaIS4_EEEElNS0_5__ops15_Iter_comp_iterIZNS2_14analyseRepeatsERNS2_8NGHolderEPKNS2_13ReportManagerERKSt3mapIjjSt4lessIjESaISt4pairIKjjEEERKSH_IjS6_IS6_INS2_9CharReachESaISR_EESaIST_EESJ_SaISK_ISL_SV_EEEPS6_INS2_17BoundedRepeatDataESaIS11_EEbbRKNS2_4GreyEPbE3$_1EEEvT_S1B_S1B_T0_S1C_T1_"(ptr %0, ptr %10, ptr %1, i64 noundef %9, i64 noundef %13)
  br label %common.ret27
}